target datalayout = "e-m:e-p270:32:32-p271:32:32-p272:64:64-i64:64-i128:128-f80:128-n8:16:32:64-S128"
target triple = "x86_64-pc-linux-gnu"

%struct.decNumber = type { i32, i32, i8, [1 x i8] }

@_ZL9DECPOWERS = internal constant [10 x i32] [i32 1, i32 10, i32 100, i32 1000, i32 10000, i32 100000, i32 1000000, i32 10000000, i32 100000000, i32 1000000000], align 16

; Function Attrs: mustprogress uwtable
define i32 @uprv_decNumberToUInt32_77(ptr noundef %0, ptr noundef %1) #0 {
  %3 = alloca i32, align 4
  %4 = alloca ptr, align 8
  %5 = alloca ptr, align 8
  %6 = alloca i32, align 4
  %7 = alloca ptr, align 8
  %8 = alloca i32, align 4
  %9 = alloca i32, align 4
  %10 = alloca i32, align 4
  store ptr %0, ptr %4, align 8, !tbaa !3
  store ptr %1, ptr %5, align 8, !tbaa !3
  %11 = load ptr, ptr %4, align 8, !tbaa !3
  %12 = getelementptr inbounds nuw %struct.decNumber, ptr %11, i32 0, i32 2
  %13 = load i8, ptr %12, align 4, !tbaa !9
  %14 = zext i8 %13 to i32
  %15 = and i32 %14, 112
  %16 = icmp ne i32 %15, 0
  br i1 %16, label %53, label %17

17:                                               ; preds = %2
  %18 = load ptr, ptr %4, align 8, !tbaa !3
  %19 = getelementptr inbounds nuw %struct.decNumber, ptr %18, i32 0, i32 0
  %20 = load i32, ptr %19, align 4, !tbaa !16
  %21 = icmp sgt i32 %20, 10
  br i1 %21, label %53, label %22

22:                                               ; preds = %17
  %23 = load ptr, ptr %4, align 8, !tbaa !3
  %24 = getelementptr inbounds nuw %struct.decNumber, ptr %23, i32 0, i32 1
  %25 = load i32, ptr %24, align 4, !tbaa !17
  %26 = icmp ne i32 %25, 0
  br i1 %26, label %53, label %27

27:                                               ; preds = %22
  %28 = load ptr, ptr %4, align 8, !tbaa !3
  %29 = getelementptr inbounds nuw %struct.decNumber, ptr %28, i32 0, i32 2
  %30 = load i8, ptr %29, align 4, !tbaa !9
  %31 = zext i8 %30 to i32
  %32 = and i32 %31, 128
  %33 = icmp ne i32 %32, 0
  br i1 %33, label %34, label %54

34:                                               ; preds = %27
  %35 = load ptr, ptr %4, align 8, !tbaa !3
  %36 = getelementptr inbounds nuw %struct.decNumber, ptr %35, i32 0, i32 3
  %37 = getelementptr inbounds [1 x i8], ptr %36, i64 0, i64 0
  %38 = load i8, ptr %37, align 1, !tbaa !13
  %39 = zext i8 %38 to i32
  %40 = icmp eq i32 %39, 0
  br i1 %40, label %41, label %53

41:                                               ; preds = %34
  %42 = load ptr, ptr %4, align 8, !tbaa !3
  %43 = getelementptr inbounds nuw %struct.decNumber, ptr %42, i32 0, i32 0
  %44 = load i32, ptr %43, align 4, !tbaa !16
  %45 = icmp eq i32 %44, 1
  br i1 %45, label %46, label %53

46:                                               ; preds = %41
  %47 = load ptr, ptr %4, align 8, !tbaa !3
  %48 = getelementptr inbounds nuw %struct.decNumber, ptr %47, i32 0, i32 2
  %49 = load i8, ptr %48, align 4, !tbaa !9
  %50 = zext i8 %49 to i32
  %51 = and i32 %50, 112
  %52 = icmp eq i32 %51, 0
  br i1 %52, label %54, label %53

53:                                               ; preds = %46, %41, %34, %22, %17, %2
  br label %108

54:                                               ; preds = %46, %27
  call void @llvm.lifetime.start.p0(i64 4, ptr %6) #8
  call void @llvm.lifetime.start.p0(i64 8, ptr %7) #8
  call void @llvm.lifetime.start.p0(i64 4, ptr %8) #8
  store i32 0, ptr %8, align 4, !tbaa !7
  call void @llvm.lifetime.start.p0(i64 4, ptr %9) #8
  %55 = load ptr, ptr %4, align 8, !tbaa !3
  %56 = getelementptr inbounds nuw %struct.decNumber, ptr %55, i32 0, i32 3
  %57 = getelementptr inbounds [1 x i8], ptr %56, i64 0, i64 0
  store ptr %57, ptr %7, align 8, !tbaa !11
  %58 = load ptr, ptr %7, align 8, !tbaa !11
  %59 = load i8, ptr %58, align 1, !tbaa !13
  %60 = zext i8 %59 to i32
  store i32 %60, ptr %9, align 4, !tbaa !7
  %61 = load ptr, ptr %7, align 8, !tbaa !11
  %62 = getelementptr inbounds nuw i8, ptr %61, i32 1
  store ptr %62, ptr %7, align 8, !tbaa !11
  store i32 1, ptr %6, align 4, !tbaa !7
  br label %63

63:                                               ; preds = %81, %54
  %64 = load i32, ptr %6, align 4, !tbaa !7
  %65 = load ptr, ptr %4, align 8, !tbaa !3
  %66 = getelementptr inbounds nuw %struct.decNumber, ptr %65, i32 0, i32 0
  %67 = load i32, ptr %66, align 4, !tbaa !16
  %68 = icmp slt i32 %64, %67
  br i1 %68, label %69, label %86

69:                                               ; preds = %63
  %70 = load ptr, ptr %7, align 8, !tbaa !11
  %71 = load i8, ptr %70, align 1, !tbaa !13
  %72 = zext i8 %71 to i32
  %73 = load i32, ptr %6, align 4, !tbaa !7
  %74 = sub nsw i32 %73, 1
  %75 = sext i32 %74 to i64
  %76 = getelementptr inbounds [10 x i32], ptr @_ZL9DECPOWERS, i64 0, i64 %75
  %77 = load i32, ptr %76, align 4, !tbaa !7
  %78 = mul i32 %72, %77
  %79 = load i32, ptr %8, align 4, !tbaa !7
  %80 = add i32 %79, %78
  store i32 %80, ptr %8, align 4, !tbaa !7
  br label %81

81:                                               ; preds = %69
  %82 = load ptr, ptr %7, align 8, !tbaa !11
  %83 = getelementptr inbounds nuw i8, ptr %82, i32 1
  store ptr %83, ptr %7, align 8, !tbaa !11
  %84 = load i32, ptr %6, align 4, !tbaa !7
  %85 = add nsw i32 %84, 1
  store i32 %85, ptr %6, align 4, !tbaa !7
  br label %63, !llvm.loop !20

86:                                               ; preds = %63
  %87 = load i32, ptr %8, align 4, !tbaa !7
  %88 = icmp ugt i32 %87, 429496729
  br i1 %88, label %95, label %89

89:                                               ; preds = %86
  %90 = load i32, ptr %8, align 4, !tbaa !7
  %91 = icmp eq i32 %90, 429496729
  br i1 %91, label %92, label %96

92:                                               ; preds = %89
  %93 = load i32, ptr %9, align 4, !tbaa !7
  %94 = icmp ugt i32 %93, 5
  br i1 %94, label %95, label %96

95:                                               ; preds = %92, %86
  br label %104

96:                                               ; preds = %92, %89
  %97 = load i32, ptr %8, align 4, !tbaa !7
  %98 = shl i32 %97, 1
  %99 = load i32, ptr %8, align 4, !tbaa !7
  %100 = shl i32 %99, 3
  %101 = add i32 %98, %100
  %102 = load i32, ptr %9, align 4, !tbaa !7
  %103 = add i32 %101, %102
  store i32 %103, ptr %3, align 4
  store i32 1, ptr %10, align 4
  br label %105

104:                                              ; preds = %95
  store i32 0, ptr %10, align 4
  br label %105

105:                                              ; preds = %104, %96
  call void @llvm.lifetime.end.p0(i64 4, ptr %9) #8
  call void @llvm.lifetime.end.p0(i64 4, ptr %8) #8
  call void @llvm.lifetime.end.p0(i64 8, ptr %7) #8
  call void @llvm.lifetime.end.p0(i64 4, ptr %6) #8
  %106 = load i32, ptr %10, align 4
  switch i32 %106, label %113 [
    i32 0, label %107
    i32 1, label %111
  ]

107:                                              ; preds = %105
  br label %108

108:                                              ; preds = %107, %53
  %109 = load ptr, ptr %5, align 8, !tbaa !3
  %110 = call ptr @uprv_decContextSetStatus_77(ptr noundef %109, i32 noundef 128)
  store i32 0, ptr %3, align 4
  br label %111

111:                                              ; preds = %108, %105
  %112 = load i32, ptr %3, align 4
  ret i32 %112

113:                                              ; preds = %105
  unreachable
}