; Function Attrs: mustprogress uwtable
define i32 @uprv_decNumberToUInt32_77(ptr noundef readonly captures(none) %0, ptr noundef %1) local_unnamed_addr #3 {
  %3 = getelementptr inbounds nuw i8, ptr %0, i64 8
  %4 = load i8, ptr %3, align 4, !tbaa !3
  %5 = and i8 %4, 112
  %.not = icmp eq i8 %5, 0
  br i1 %.not, label %6, label %.thread

6:                                                ; preds = %2
  %7 = load i32, ptr %0, align 4, !tbaa !9
  %8 = icmp sgt i32 %7, 10
  br i1 %8, label %.thread, label %9

9:                                                ; preds = %6
  %10 = getelementptr inbounds nuw i8, ptr %0, i64 4
  %11 = load i32, ptr %10, align 4, !tbaa !8
  %.not32 = icmp eq i32 %11, 0
  br i1 %.not32, label %12, label %.thread

12:                                               ; preds = %9
  %.not33 = icmp sgt i8 %4, -1
  %.phi.trans.insert = getelementptr inbounds nuw i8, ptr %0, i64 9
  %.pre = load i8, ptr %.phi.trans.insert, align 1, !tbaa !10
  br i1 %.not33, label %16, label %13

13:                                               ; preds = %12
  %14 = icmp eq i8 %.pre, 0
  %15 = icmp eq i32 %7, 1
  %or.cond34 = and i1 %15, %14
  br i1 %or.cond34, label %.thread47, label %.thread

16:                                               ; preds = %12
  %17 = icmp sgt i32 %7, 1
  br i1 %17, label %.lr.ph.preheader, label %.thread47

.lr.ph.preheader:                                 ; preds = %16
  %18 = getelementptr inbounds nuw i8, ptr %0, i64 10
  %wide.trip.count = zext nneg i32 %7 to i64
  br label %.lr.ph

.lr.ph:                                           ; preds = %.lr.ph.preheader, %.lr.ph
  %indvars.iv = phi i64 [ 1, %.lr.ph.preheader ], [ %indvars.iv.next, %.lr.ph ]
  %.02740 = phi i32 [ 0, %.lr.ph.preheader ], [ %25, %.lr.ph ]
  %.02839 = phi ptr [ %18, %.lr.ph.preheader ], [ %26, %.lr.ph ]
  %19 = load i8, ptr %.02839, align 1, !tbaa !10
  %20 = zext i8 %19 to i32
  %21 = add nsw i64 %indvars.iv, -1
  %22 = getelementptr inbounds [10 x i32], ptr @_ZL9DECPOWERS, i64 0, i64 %21
  %23 = load i32, ptr %22, align 4, !tbaa !14
  %24 = mul i32 %23, %20
  %25 = add i32 %24, %.02740
  %26 = getelementptr inbounds nuw i8, ptr %.02839, i64 1
  %indvars.iv.next = add nuw nsw i64 %indvars.iv, 1
  %exitcond.not = icmp eq i64 %indvars.iv.next, %wide.trip.count
  br i1 %exitcond.not, label %._crit_edge, label %.lr.ph, !llvm.loop !16

._crit_edge:                                      ; preds = %.lr.ph
  %27 = icmp ugt i32 %25, 429496729
  br i1 %27, label %.thread, label %28

28:                                               ; preds = %._crit_edge
  %29 = icmp eq i32 %25, 429496729
  %30 = icmp ugt i8 %.pre, 5
  %or.cond = select i1 %29, i1 %30, i1 false
  br i1 %or.cond, label %.thread, label %.thread47

.thread47:                                        ; preds = %16, %13, %28
  %.shrunk = phi i8 [ %.pre, %28 ], [ %.pre, %16 ], [ 0, %13 ]
  %.027.lcssa4650 = phi i32 [ %25, %28 ], [ 0, %16 ], [ 0, %13 ]
  %31 = zext i8 %.shrunk to i32
  %32 = mul nuw i32 %.027.lcssa4650, 10
  %33 = add i32 %32, %31
  br label %35

.thread:                                          ; preds = %28, %._crit_edge, %2, %6, %9, %13
  %34 = tail call ptr @uprv_decContextSetStatus_77(ptr noundef %1, i32 noundef 128)
  br label %35

35:                                               ; preds = %.thread47, %.thread
  %.1 = phi i32 [ 0, %.thread ], [ %33, %.thread47 ]
  ret i32 %.1
}